target datalayout = "e-m:e-p270:32:32-p271:32:32-p272:64:64-i64:64-i128:128-f80:128-n8:16:32:64-S128"
target triple = "x86_64-pc-linux-gnu"

%struct.IDAMemRec = type { double, ptr, ptr, i32, double, double, ptr, i32, ptr, ptr, i32, ptr, ptr, i32, i32, double, double, ptr, i32, i32, i32, ptr, ptr, i32, ptr, ptr, ptr, i32, double, i32, i32, double, ptr, ptr, i32, ptr, ptr, i32, i32, i32, double, ptr, ptr, [6 x ptr], [6 x double], [6 x double], [6 x double], [6 x double], [6 x double], ptr, ptr, ptr, ptr, ptr, ptr, ptr, ptr, ptr, ptr, ptr, ptr, ptr, ptr, ptr, [6 x ptr], ptr, ptr, ptr, ptr, [6 x ptr], ptr, ptr, ptr, ptr, ptr, ptr, ptr, ptr, ptr, ptr, ptr, ptr, ptr, ptr, [6 x ptr], ptr, ptr, ptr, ptr, ptr, double, ptr, ptr, i32, i32, i32, i32, i32, i32, i32, double, double, double, i32, double, i32, i32, i32, i32, double, double, double, double, double, double, double, double, double, double, double, double, double, double, i32, i32, i32, i32, i32, i64, double, i32, i64, i64, i64, i64, i64, i64, i64, i64, i64, i64, i64, i64, i64, i64, i64, i64, i64, i64, i64, i64, i64, i64, i64, i64, ptr, ptr, ptr, i32, i32, i32, i32, i32, i32, i32, i32, i32, i32, i32, i32, i32, ptr, ptr, ptr, ptr, ptr, ptr, i32, i32, i32, i32, i32, i32, double, double, double, ptr, i32, ptr, ptr, double, double, double, ptr, ptr, ptr, double, double, i32, i32, i64, ptr, i32, i32, ptr, i32 }
%struct.IDAadjMemRec = type { double, double, i32, i32, double, ptr, i32, ptr, i32, ptr, ptr, i32, i64, ptr, i64, i32, ptr, ptr, ptr, ptr, i32, i32, i32, i32, i32, [6 x ptr], [6 x ptr], [6 x double], ptr, ptr, ptr, ptr, i64 }
%struct.IDABMemRec = type { i32, double, ptr, i32, i32, ptr, ptr, ptr, ptr, ptr, ptr, ptr, ptr, ptr, double, ptr, ptr, ptr }

@.str = private unnamed_addr constant [5 x i8] c"IDAA\00", align 1
@.str.2 = private unnamed_addr constant [24 x i8] c"ida_mem = NULL illegal.\00", align 1
@.str.5 = private unnamed_addr constant [25 x i8] c"A memory request failed.\00", align 1
@.str.7 = private unnamed_addr constant [51 x i8] c"Illegal attempt to call before calling IDAadjInit.\00", align 1
@.str.13 = private unnamed_addr constant [11 x i8] c"IDACreateB\00", align 1

; Function Attrs: nounwind uwtable
define i32 @IDACreateB(ptr noundef %0, ptr noundef %1) #0 {
  %3 = alloca i32, align 4
  %4 = alloca ptr, align 8
  %5 = alloca ptr, align 8
  %6 = alloca ptr, align 8
  %7 = alloca ptr, align 8
  %8 = alloca ptr, align 8
  %9 = alloca ptr, align 8
  %10 = alloca i32, align 4
  store ptr %0, ptr %4, align 8, !tbaa !3
  store ptr %1, ptr %5, align 8, !tbaa !141
  call void @llvm.lifetime.start.p0(i64 8, ptr %6) #6
  call void @llvm.lifetime.start.p0(i64 8, ptr %7) #6
  call void @llvm.lifetime.start.p0(i64 8, ptr %8) #6
  call void @llvm.lifetime.start.p0(i64 8, ptr %9) #6
  %11 = load ptr, ptr %4, align 8, !tbaa !3
  %12 = icmp eq ptr %11, null
  br i1 %12, label %13, label %14

13:                                               ; preds = %2
  call void (ptr, i32, ptr, ptr, ptr, ...) @IDAProcessError(ptr noundef null, i32 noundef -20, ptr noundef @.str, ptr noundef @.str.13, ptr noundef @.str.2)
  store i32 -20, ptr %3, align 4
  store i32 1, ptr %10, align 4
  br label %104

14:                                               ; preds = %2
  %15 = load ptr, ptr %4, align 8, !tbaa !3
  store ptr %15, ptr %6, align 8, !tbaa !11
  %16 = load ptr, ptr %6, align 8, !tbaa !11
  %17 = getelementptr inbounds nuw %struct.IDAMemRec, ptr %16, i32 0, i32 205
  %18 = load i32, ptr %17, align 8, !tbaa !51
  %19 = icmp eq i32 %18, 0
  br i1 %19, label %20, label %22

20:                                               ; preds = %14
  %21 = load ptr, ptr %6, align 8, !tbaa !11
  call void (ptr, i32, ptr, ptr, ptr, ...) @IDAProcessError(ptr noundef %21, i32 noundef -101, ptr noundef @.str, ptr noundef @.str.13, ptr noundef @.str.7)
  store i32 -101, ptr %3, align 4
  store i32 1, ptr %10, align 4
  br label %104

22:                                               ; preds = %14
  %23 = load ptr, ptr %6, align 8, !tbaa !11
  %24 = getelementptr inbounds nuw %struct.IDAMemRec, ptr %23, i32 0, i32 204
  %25 = load ptr, ptr %24, align 8, !tbaa !15
  store ptr %25, ptr %9, align 8, !tbaa !13
  %26 = call noalias ptr @malloc(i64 noundef 136) #7
  store ptr %26, ptr %8, align 8, !tbaa !132
  %27 = load ptr, ptr %8, align 8, !tbaa !132
  %28 = icmp eq ptr %27, null
  br i1 %28, label %29, label %31

29:                                               ; preds = %22
  %30 = load ptr, ptr %6, align 8, !tbaa !11
  call void (ptr, i32, ptr, ptr, ptr, ...) @IDAProcessError(ptr noundef %30, i32 noundef -21, ptr noundef @.str, ptr noundef @.str.13, ptr noundef @.str.5)
  store i32 -21, ptr %3, align 4
  store i32 1, ptr %10, align 4
  br label %104

31:                                               ; preds = %22
  %32 = call ptr @IDACreate()
  store ptr %32, ptr %7, align 8, !tbaa !3
  %33 = load ptr, ptr %7, align 8, !tbaa !3
  %34 = icmp eq ptr %33, null
  br i1 %34, label %35, label %37

35:                                               ; preds = %31
  %36 = load ptr, ptr %6, align 8, !tbaa !11
  call void (ptr, i32, ptr, ptr, ptr, ...) @IDAProcessError(ptr noundef %36, i32 noundef -21, ptr noundef @.str, ptr noundef @.str.13, ptr noundef @.str.5)
  store i32 -21, ptr %3, align 4
  store i32 1, ptr %10, align 4
  br label %104

37:                                               ; preds = %31
  %38 = load ptr, ptr %7, align 8, !tbaa !3
  %39 = load ptr, ptr %4, align 8, !tbaa !3
  %40 = call i32 @IDASetUserData(ptr noundef %38, ptr noundef %39)
  %41 = load ptr, ptr %7, align 8, !tbaa !3
  %42 = load ptr, ptr %6, align 8, !tbaa !11
  %43 = getelementptr inbounds nuw %struct.IDAMemRec, ptr %42, i32 0, i32 155
  %44 = load ptr, ptr %43, align 8, !tbaa !189
  %45 = load ptr, ptr %6, align 8, !tbaa !11
  %46 = getelementptr inbounds nuw %struct.IDAMemRec, ptr %45, i32 0, i32 156
  %47 = load ptr, ptr %46, align 8, !tbaa !190
  %48 = call i32 @IDASetErrHandlerFn(ptr noundef %41, ptr noundef %44, ptr noundef %47)
  %49 = load ptr, ptr %7, align 8, !tbaa !3
  %50 = load ptr, ptr %6, align 8, !tbaa !11
  %51 = getelementptr inbounds nuw %struct.IDAMemRec, ptr %50, i32 0, i32 157
  %52 = load ptr, ptr %51, align 8, !tbaa !191
  %53 = call i32 @IDASetErrFile(ptr noundef %49, ptr noundef %52)
  %54 = load ptr, ptr %9, align 8, !tbaa !13
  %55 = getelementptr inbounds nuw %struct.IDAadjMemRec, ptr %54, i32 0, i32 6
  %56 = load i32, ptr %55, align 8, !tbaa !46
  %57 = load ptr, ptr %8, align 8, !tbaa !132
  %58 = getelementptr inbounds nuw %struct.IDABMemRec, ptr %57, i32 0, i32 0
  store i32 %56, ptr %58, align 8, !tbaa !192
  %59 = load ptr, ptr %7, align 8, !tbaa !3
  %60 = load ptr, ptr %8, align 8, !tbaa !132
  %61 = getelementptr inbounds nuw %struct.IDABMemRec, ptr %60, i32 0, i32 2
  store ptr %59, ptr %61, align 8, !tbaa !135
  %62 = load ptr, ptr %8, align 8, !tbaa !132
  %63 = getelementptr inbounds nuw %struct.IDABMemRec, ptr %62, i32 0, i32 5
  store ptr null, ptr %63, align 8, !tbaa !193
  %64 = load ptr, ptr %8, align 8, !tbaa !132
  %65 = getelementptr inbounds nuw %struct.IDABMemRec, ptr %64, i32 0, i32 6
  store ptr null, ptr %65, align 8, !tbaa !194
  %66 = load ptr, ptr %8, align 8, !tbaa !132
  %67 = getelementptr inbounds nuw %struct.IDABMemRec, ptr %66, i32 0, i32 7
  store ptr null, ptr %67, align 8, !tbaa !195
  %68 = load ptr, ptr %8, align 8, !tbaa !132
  %69 = getelementptr inbounds nuw %struct.IDABMemRec, ptr %68, i32 0, i32 8
  store ptr null, ptr %69, align 8, !tbaa !196
  %70 = load ptr, ptr %8, align 8, !tbaa !132
  %71 = getelementptr inbounds nuw %struct.IDABMemRec, ptr %70, i32 0, i32 9
  store ptr null, ptr %71, align 8, !tbaa !197
  %72 = load ptr, ptr %8, align 8, !tbaa !132
  %73 = getelementptr inbounds nuw %struct.IDABMemRec, ptr %72, i32 0, i32 10
  store ptr null, ptr %73, align 8, !tbaa !198
  %74 = load ptr, ptr %8, align 8, !tbaa !132
  %75 = getelementptr inbounds nuw %struct.IDABMemRec, ptr %74, i32 0, i32 11
  store ptr null, ptr %75, align 8, !tbaa !136
  %76 = load ptr, ptr %8, align 8, !tbaa !132
  %77 = getelementptr inbounds nuw %struct.IDABMemRec, ptr %76, i32 0, i32 12
  store ptr null, ptr %77, align 8, !tbaa !199
  %78 = load ptr, ptr %8, align 8, !tbaa !132
  %79 = getelementptr inbounds nuw %struct.IDABMemRec, ptr %78, i32 0, i32 13
  store ptr null, ptr %79, align 8, !tbaa !137
  %80 = load ptr, ptr %8, align 8, !tbaa !132
  %81 = getelementptr inbounds nuw %struct.IDABMemRec, ptr %80, i32 0, i32 15
  store ptr null, ptr %81, align 8, !tbaa !138
  %82 = load ptr, ptr %8, align 8, !tbaa !132
  %83 = getelementptr inbounds nuw %struct.IDABMemRec, ptr %82, i32 0, i32 16
  store ptr null, ptr %83, align 8, !tbaa !139
  %84 = load ptr, ptr %8, align 8, !tbaa !132
  %85 = getelementptr inbounds nuw %struct.IDABMemRec, ptr %84, i32 0, i32 3
  store i32 0, ptr %85, align 8, !tbaa !200
  %86 = load ptr, ptr %8, align 8, !tbaa !132
  %87 = getelementptr inbounds nuw %struct.IDABMemRec, ptr %86, i32 0, i32 4
  store i32 0, ptr %87, align 4, !tbaa !201
  %88 = load ptr, ptr %9, align 8, !tbaa !13
  %89 = getelementptr inbounds nuw %struct.IDAadjMemRec, ptr %88, i32 0, i32 5
  %90 = load ptr, ptr %89, align 8, !tbaa !44
  %91 = load ptr, ptr %8, align 8, !tbaa !132
  %92 = getelementptr inbounds nuw %struct.IDABMemRec, ptr %91, i32 0, i32 17
  store ptr %90, ptr %92, align 8, !tbaa !133
  %93 = load ptr, ptr %8, align 8, !tbaa !132
  %94 = load ptr, ptr %9, align 8, !tbaa !13
  %95 = getelementptr inbounds nuw %struct.IDAadjMemRec, ptr %94, i32 0, i32 5
  store ptr %93, ptr %95, align 8, !tbaa !44
  %96 = load ptr, ptr %9, align 8, !tbaa !13
  %97 = getelementptr inbounds nuw %struct.IDAadjMemRec, ptr %96, i32 0, i32 6
  %98 = load i32, ptr %97, align 8, !tbaa !46
  %99 = load ptr, ptr %5, align 8, !tbaa !141
  store i32 %98, ptr %99, align 4, !tbaa !9
  %100 = load ptr, ptr %9, align 8, !tbaa !13
  %101 = getelementptr inbounds nuw %struct.IDAadjMemRec, ptr %100, i32 0, i32 6
  %102 = load i32, ptr %101, align 8, !tbaa !46
  %103 = add nsw i32 %102, 1
  store i32 %103, ptr %101, align 8, !tbaa !46
  store i32 0, ptr %3, align 4
  store i32 1, ptr %10, align 4
  br label %104

104:                                              ; preds = %37, %35, %29, %20, %13
  call void @llvm.lifetime.end.p0(i64 8, ptr %9) #6
  call void @llvm.lifetime.end.p0(i64 8, ptr %8) #6
  call void @llvm.lifetime.end.p0(i64 8, ptr %7) #6
  call void @llvm.lifetime.end.p0(i64 8, ptr %6) #6
  %105 = load i32, ptr %3, align 4
  ret i32 %105
}