; Function Attrs: nounwind uwtable
define range(i32 -101, 1) i32 @IDACreateB(ptr noundef %0, ptr noundef writeonly captures(none) %1) local_unnamed_addr #0 {
  %3 = icmp eq ptr %0, null
  br i1 %3, label %4, label %5

4:                                                ; preds = %2
  tail call void (ptr, i32, ptr, ptr, ptr, ...) @IDAProcessError(ptr noundef null, i32 noundef -20, ptr noundef nonnull @.str, ptr noundef nonnull @.str.13, ptr noundef nonnull @.str.2) #9
  br label %39

5:                                                ; preds = %2
  %6 = getelementptr inbounds nuw i8, ptr %0, i64 1824
  %7 = load i32, ptr %6, align 8, !tbaa !46
  %8 = icmp eq i32 %7, 0
  br i1 %8, label %9, label %10

9:                                                ; preds = %5
  tail call void (ptr, i32, ptr, ptr, ptr, ...) @IDAProcessError(ptr noundef nonnull %0, i32 noundef -101, ptr noundef nonnull @.str, ptr noundef nonnull @.str.13, ptr noundef nonnull @.str.7) #9
  br label %39

10:                                               ; preds = %5
  %11 = getelementptr inbounds nuw i8, ptr %0, i64 1816
  %12 = load ptr, ptr %11, align 8, !tbaa !3
  %13 = tail call noalias dereferenceable_or_null(136) ptr @malloc(i64 noundef 136) #10
  %14 = icmp eq ptr %13, null
  br i1 %14, label %15, label %16

15:                                               ; preds = %10
  tail call void (ptr, i32, ptr, ptr, ptr, ...) @IDAProcessError(ptr noundef nonnull %0, i32 noundef -21, ptr noundef nonnull @.str, ptr noundef nonnull @.str.13, ptr noundef nonnull @.str.5) #9
  br label %39

16:                                               ; preds = %10
  %17 = tail call ptr @IDACreate() #9
  %18 = icmp eq ptr %17, null
  br i1 %18, label %19, label %20

19:                                               ; preds = %16
  tail call void (ptr, i32, ptr, ptr, ptr, ...) @IDAProcessError(ptr noundef nonnull %0, i32 noundef -21, ptr noundef nonnull @.str, ptr noundef nonnull @.str.13, ptr noundef nonnull @.str.5) #9
  br label %39

20:                                               ; preds = %16
  %21 = tail call i32 @IDASetUserData(ptr noundef nonnull %17, ptr noundef nonnull %0) #9
  %22 = getelementptr inbounds nuw i8, ptr %0, i64 1512
  %23 = load ptr, ptr %22, align 8, !tbaa !177
  %24 = getelementptr inbounds nuw i8, ptr %0, i64 1520
  %25 = load ptr, ptr %24, align 8, !tbaa !178
  %26 = tail call i32 @IDASetErrHandlerFn(ptr noundef nonnull %17, ptr noundef %23, ptr noundef %25) #9
  %27 = getelementptr inbounds nuw i8, ptr %0, i64 1528
  %28 = load ptr, ptr %27, align 8, !tbaa !179
  %29 = tail call i32 @IDASetErrFile(ptr noundef nonnull %17, ptr noundef %28) #9
  %30 = getelementptr inbounds nuw i8, ptr %12, i64 40
  %31 = load i32, ptr %30, align 8, !tbaa !41
  store i32 %31, ptr %13, align 8, !tbaa !180
  %32 = getelementptr inbounds nuw i8, ptr %13, i64 16
  store ptr %17, ptr %32, align 8, !tbaa !123
  %33 = getelementptr inbounds nuw i8, ptr %13, i64 112
  %34 = getelementptr inbounds nuw i8, ptr %13, i64 24
  %35 = getelementptr inbounds nuw i8, ptr %12, i64 32
  tail call void @llvm.memset.p0.i64(ptr noundef nonnull align 8 dereferenceable(80) %34, i8 0, i64 80, i1 false)
  tail call void @llvm.memset.p0.i64(ptr noundef nonnull align 8 dereferenceable(16) %33, i8 0, i64 16, i1 false)
  %36 = load ptr, ptr %35, align 8, !tbaa !39
  %37 = getelementptr inbounds nuw i8, ptr %13, i64 128
  store ptr %36, ptr %37, align 8, !tbaa !119
  store ptr %13, ptr %35, align 8, !tbaa !39
  store i32 %31, ptr %1, align 4, !tbaa !147
  %38 = add nsw i32 %31, 1
  store i32 %38, ptr %30, align 8, !tbaa !41
  br label %39

39:                                               ; preds = %20, %19, %15, %9, %4
  %.0 = phi i32 [ -20, %4 ], [ -101, %9 ], [ -21, %15 ], [ -21, %19 ], [ 0, %20 ]
  ret i32 %.0
}